target datalayout = "e-m:e-p270:32:32-p271:32:32-p272:64:64-i64:64-i128:128-f80:128-n8:16:32:64-S128"
target triple = "x86_64-pc-linux-gnu"

%struct.Aig_Man_t_ = type { ptr, ptr, ptr, ptr, ptr, ptr, ptr, %struct.Aig_Obj_t_, i32, i32, i32, i32, i32, i32, [7 x i32], i32, ptr, i32, ptr, i32, ptr, i32, i32, i32, ptr, i32, i32, i32, i32, i32, ptr, ptr, i32, ptr, ptr, i32, ptr, ptr, i32, i32, i32, ptr, ptr, ptr, ptr, ptr, ptr, ptr, ptr, ptr, ptr, ptr, ptr, ptr, ptr, i32, ptr, ptr, ptr, ptr, i32, i64, i64, i64, ptr, ptr }
%struct.Aig_Obj_t_ = type { %union.anon, ptr, ptr, i64, i32, i32, %union.anon.0 }
%union.anon = type { ptr }
%union.anon.0 = type { ptr }
%struct.Vec_Ptr_t_ = type { i32, i32, ptr }
%struct.Pdr_Par_t_ = type { i32, i32, i32, i32, i32, i32, i32, i32, i32, i32, i32, i32, i32, i32, i32, i32, i32, i32, i32, i32, i32, i32, i32, i32, i32, i32, i32, i32, i32, i32, i32, i32, i32, i32, i32, i32, i32, i32, ptr, ptr, i64, ptr, ptr }

@.str.2 = private unnamed_addr constant [9 x i8] c"%s_%d.%s\00", align 1
@.str.3 = private unnamed_addr constant [6 x i8] c"kLive\00", align 1
@.str.4 = private unnamed_addr constant [5 x i8] c"blif\00", align 1

; Function Attrs: inlinehint nounwind uwtable
define internal i32 @Aig_IsComplement(ptr noundef %0) #2 {
  %2 = alloca ptr, align 8
  store ptr %0, ptr %2, align 8, !tbaa !10
  %3 = load ptr, ptr %2, align 8, !tbaa !10
  %4 = ptrtoint ptr %3 to i64
  %5 = and i64 %4, 1
  %6 = trunc i64 %5 to i32
  ret i32 %6
}

; Function Attrs: inlinehint nounwind uwtable
define internal ptr @Aig_Regular(ptr noundef %0) #2 {
  %2 = alloca ptr, align 8
  store ptr %0, ptr %2, align 8, !tbaa !10
  %3 = load ptr, ptr %2, align 8, !tbaa !10
  %4 = ptrtoint ptr %3 to i64
  %5 = and i64 %4, -2
  %6 = inttoptr i64 %5 to ptr
  ret ptr %6
}

; Function Attrs: inlinehint nounwind uwtable
define internal ptr @Aig_Not(ptr noundef %0) #2 {
  %2 = alloca ptr, align 8
  store ptr %0, ptr %2, align 8, !tbaa !10
  %3 = load ptr, ptr %2, align 8, !tbaa !10
  %4 = ptrtoint ptr %3 to i64
  %5 = xor i64 %4, 1
  %6 = inttoptr i64 %5 to ptr
  ret ptr %6
}

; Function Attrs: inlinehint nounwind uwtable
define internal ptr @Aig_NotCond(ptr noundef %0, i32 noundef %1) #2 {
  %3 = alloca ptr, align 8
  %4 = alloca i32, align 4
  store ptr %0, ptr %3, align 8, !tbaa !10
  store i32 %1, ptr %4, align 4, !tbaa !8
  %5 = load ptr, ptr %3, align 8, !tbaa !10
  %6 = ptrtoint ptr %5 to i64
  %7 = load i32, ptr %4, align 4, !tbaa !8
  %8 = sext i32 %7 to i64
  %9 = xor i64 %6, %8
  %10 = inttoptr i64 %9 to ptr
  ret ptr %10
}

; Function Attrs: inlinehint nounwind uwtable
define internal i32 @Aig_ObjFaninC0(ptr noundef %0) #2 {
  %2 = alloca ptr, align 8
  store ptr %0, ptr %2, align 8, !tbaa !10
  %3 = load ptr, ptr %2, align 8, !tbaa !10
  %4 = getelementptr inbounds nuw %struct.Aig_Obj_t_, ptr %3, i32 0, i32 1
  %5 = load ptr, ptr %4, align 8, !tbaa !24
  %6 = call i32 @Aig_IsComplement(ptr noundef %5)
  ret i32 %6
}

; Function Attrs: inlinehint nounwind uwtable
define internal ptr @Aig_ObjFanin0(ptr noundef %0) #2 {
  %2 = alloca ptr, align 8
  store ptr %0, ptr %2, align 8, !tbaa !10
  %3 = load ptr, ptr %2, align 8, !tbaa !10
  %4 = getelementptr inbounds nuw %struct.Aig_Obj_t_, ptr %3, i32 0, i32 1
  %5 = load ptr, ptr %4, align 8, !tbaa !24
  %6 = call ptr @Aig_Regular(ptr noundef %5)
  ret ptr %6
}

; Function Attrs: inlinehint nounwind uwtable
define internal ptr @Vec_PtrEntry(ptr noundef %0, i32 noundef %1) #2 {
  %3 = alloca ptr, align 8
  %4 = alloca i32, align 4
  store ptr %0, ptr %3, align 8, !tbaa !39
  store i32 %1, ptr %4, align 4, !tbaa !8
  %5 = load ptr, ptr %3, align 8, !tbaa !39
  %6 = getelementptr inbounds nuw %struct.Vec_Ptr_t_, ptr %5, i32 0, i32 2
  %7 = load ptr, ptr %6, align 8, !tbaa !40
  %8 = load i32, ptr %4, align 4, !tbaa !8
  %9 = sext i32 %8 to i64
  %10 = getelementptr inbounds ptr, ptr %7, i64 %9
  %11 = load ptr, ptr %10, align 8, !tbaa !42
  ret ptr %11
}

; Function Attrs: inlinehint nounwind uwtable
define internal void @Aig_ObjChild0Flip(ptr noundef %0) #2 {
  %2 = alloca ptr, align 8
  store ptr %0, ptr %2, align 8, !tbaa !10
  %3 = load ptr, ptr %2, align 8, !tbaa !10
  %4 = getelementptr inbounds nuw %struct.Aig_Obj_t_, ptr %3, i32 0, i32 1
  %5 = load ptr, ptr %4, align 8, !tbaa !24
  %6 = call ptr @Aig_Not(ptr noundef %5)
  %7 = load ptr, ptr %2, align 8, !tbaa !10
  %8 = getelementptr inbounds nuw %struct.Aig_Obj_t_, ptr %7, i32 0, i32 1
  store ptr %6, ptr %8, align 8, !tbaa !24
  ret void
}

; Function Attrs: inlinehint nounwind uwtable
define internal ptr @Aig_ManCo(ptr noundef %0, i32 noundef %1) #2 {
  %3 = alloca ptr, align 8
  %4 = alloca i32, align 4
  store ptr %0, ptr %3, align 8, !tbaa !3
  store i32 %1, ptr %4, align 4, !tbaa !8
  %5 = load ptr, ptr %3, align 8, !tbaa !3
  %6 = getelementptr inbounds nuw %struct.Aig_Man_t_, ptr %5, i32 0, i32 3
  %7 = load ptr, ptr %6, align 8, !tbaa !12
  %8 = load i32, ptr %4, align 4, !tbaa !8
  %9 = call ptr @Vec_PtrEntry(ptr noundef %7, i32 noundef %8)
  ret ptr %9
}

; Function Attrs: inlinehint nounwind uwtable
define internal i32 @Saig_ManPoNum(ptr noundef %0) #2 {
  %2 = alloca ptr, align 8
  store ptr %0, ptr %2, align 8, !tbaa !3
  %3 = load ptr, ptr %2, align 8, !tbaa !3
  %4 = getelementptr inbounds nuw %struct.Aig_Man_t_, ptr %3, i32 0, i32 10
  %5 = load i32, ptr %4, align 8, !tbaa !45
  ret i32 %5
}

; Function Attrs: nounwind uwtable
define void @modifyAigToApplySafetyInvar(ptr noundef %0, i32 noundef %1, i32 noundef %2) #0 {
  %4 = alloca ptr, align 8
  %5 = alloca i32, align 4
  %6 = alloca i32, align 4
  %7 = alloca ptr, align 8
  %8 = alloca ptr, align 8
  %9 = alloca ptr, align 8
  %10 = alloca ptr, align 8
  %11 = alloca ptr, align 8
  store ptr %0, ptr %4, align 8, !tbaa !3
  store i32 %1, ptr %5, align 4, !tbaa !8
  store i32 %2, ptr %6, align 4, !tbaa !8
  call void @llvm.lifetime.start.p0(i64 8, ptr %7) #10
  call void @llvm.lifetime.start.p0(i64 8, ptr %8) #10
  call void @llvm.lifetime.start.p0(i64 8, ptr %9) #10
  call void @llvm.lifetime.start.p0(i64 8, ptr %10) #10
  call void @llvm.lifetime.start.p0(i64 8, ptr %11) #10
  %12 = load ptr, ptr %4, align 8, !tbaa !3
  %13 = load i32, ptr %6, align 4, !tbaa !8
  %14 = call ptr @Aig_ManCo(ptr noundef %12, i32 noundef %13)
  store ptr %14, ptr %7, align 8, !tbaa !10
  %15 = load ptr, ptr %7, align 8, !tbaa !10
  %16 = call ptr @Aig_ObjFanin0(ptr noundef %15)
  %17 = load ptr, ptr %7, align 8, !tbaa !10
  %18 = call i32 @Aig_ObjFaninC0(ptr noundef %17)
  %19 = call ptr @Aig_NotCond(ptr noundef %16, i32 noundef %18)
  store ptr %19, ptr %8, align 8, !tbaa !10
  %20 = load ptr, ptr %4, align 8, !tbaa !3
  %21 = load i32, ptr %5, align 4, !tbaa !8
  %22 = call ptr @Aig_ManCo(ptr noundef %20, i32 noundef %21)
  store ptr %22, ptr %9, align 8, !tbaa !10
  %23 = load ptr, ptr %9, align 8, !tbaa !10
  %24 = call ptr @Aig_ObjFanin0(ptr noundef %23)
  %25 = load ptr, ptr %9, align 8, !tbaa !10
  %26 = call i32 @Aig_ObjFaninC0(ptr noundef %25)
  %27 = call ptr @Aig_NotCond(ptr noundef %24, i32 noundef %26)
  store ptr %27, ptr %10, align 8, !tbaa !10
  %28 = load ptr, ptr %4, align 8, !tbaa !3
  %29 = load ptr, ptr %8, align 8, !tbaa !10
  %30 = load ptr, ptr %10, align 8, !tbaa !10
  %31 = call ptr @Aig_And(ptr noundef %28, ptr noundef %29, ptr noundef %30)
  store ptr %31, ptr %11, align 8, !tbaa !10
  %32 = load ptr, ptr %4, align 8, !tbaa !3
  %33 = load ptr, ptr %9, align 8, !tbaa !10
  %34 = load ptr, ptr %11, align 8, !tbaa !10
  call void @Aig_ObjPatchFanin0(ptr noundef %32, ptr noundef %33, ptr noundef %34)
  call void @llvm.lifetime.end.p0(i64 8, ptr %11) #10
  call void @llvm.lifetime.end.p0(i64 8, ptr %10) #10
  call void @llvm.lifetime.end.p0(i64 8, ptr %9) #10
  call void @llvm.lifetime.end.p0(i64 8, ptr %8) #10
  call void @llvm.lifetime.end.p0(i64 8, ptr %7) #10
  ret void
}

; Function Attrs: nounwind uwtable
define i32 @flipConePdr(ptr noundef %0, i32 noundef %1, i32 noundef %2, i32 noundef %3, i32 noundef %4) #0 {
  %6 = alloca ptr, align 8
  %7 = alloca i32, align 4
  %8 = alloca i32, align 4
  %9 = alloca i32, align 4
  %10 = alloca i32, align 4
  %11 = alloca i32, align 4
  %12 = alloca i32, align 4
  %13 = alloca ptr, align 8
  %14 = alloca ptr, align 8
  %15 = alloca %struct.Pdr_Par_t_, align 8
  %16 = alloca ptr, align 8
  %17 = alloca ptr, align 8
  %18 = alloca ptr, align 8
  store ptr %0, ptr %6, align 8, !tbaa !3
  store i32 %1, ptr %7, align 4, !tbaa !8
  store i32 %2, ptr %8, align 4, !tbaa !8
  store i32 %3, ptr %9, align 4, !tbaa !8
  store i32 %4, ptr %10, align 4, !tbaa !8
  call void @llvm.lifetime.start.p0(i64 4, ptr %11) #10
  call void @llvm.lifetime.start.p0(i64 4, ptr %12) #10
  call void @llvm.lifetime.start.p0(i64 8, ptr %13) #10
  call void @llvm.lifetime.start.p0(i64 8, ptr %14) #10
  call void @llvm.lifetime.start.p0(i64 192, ptr %15) #10
  call void @llvm.lifetime.start.p0(i64 8, ptr %16) #10
  store ptr %15, ptr %16, align 8, !tbaa !46
  call void @llvm.lifetime.start.p0(i64 8, ptr %17) #10
  store ptr null, ptr %17, align 8, !tbaa !48
  call void @llvm.lifetime.start.p0(i64 8, ptr %18) #10
  %19 = call noalias ptr @malloc(i64 noundef 50) #12
  store ptr %19, ptr %18, align 8, !tbaa !49
  %20 = load ptr, ptr %18, align 8, !tbaa !49
  %21 = load i32, ptr %10, align 4, !tbaa !8
  %22 = call i32 (ptr, ptr, ...) @sprintf(ptr noundef %20, ptr noundef @.str.2, ptr noundef @.str.3, i32 noundef %21, ptr noundef @.str.4) #10
  %23 = load i32, ptr %7, align 4, !tbaa !8
  %24 = icmp eq i32 %23, 1
  br i1 %24, label %31, label %25

25:                                               ; preds = %5
  %26 = load i32, ptr %7, align 4, !tbaa !8
  %27 = icmp eq i32 %26, 3
  br i1 %27, label %31, label %28

28:                                               ; preds = %25
  %29 = load i32, ptr %7, align 4, !tbaa !8
  %30 = icmp eq i32 %29, 4
  br i1 %30, label %31, label %35

31:                                               ; preds = %28, %25, %5
  %32 = load ptr, ptr %6, align 8, !tbaa !3
  %33 = load i32, ptr %8, align 4, !tbaa !8
  %34 = load i32, ptr %9, align 4, !tbaa !8
  call void @modifyAigToApplySafetyInvar(ptr noundef %32, i32 noundef %33, i32 noundef %34)
  br label %35

35:                                               ; preds = %31, %28
  %36 = load ptr, ptr %6, align 8, !tbaa !3
  store ptr %36, ptr %14, align 8, !tbaa !3
  %37 = load ptr, ptr %14, align 8, !tbaa !3
  %38 = call ptr @Aig_ManDupSimple(ptr noundef %37)
  store ptr %38, ptr %6, align 8, !tbaa !3
  store i32 0, ptr %12, align 4, !tbaa !8
  br label %39

39:                                               ; preds = %49, %35
  %40 = load i32, ptr %12, align 4, !tbaa !8
  %41 = load ptr, ptr %6, align 8, !tbaa !3
  %42 = call i32 @Saig_ManPoNum(ptr noundef %41)
  %43 = icmp slt i32 %40, %42
  br i1 %43, label %44, label %52

44:                                               ; preds = %39
  %45 = load ptr, ptr %6, align 8, !tbaa !3
  %46 = load i32, ptr %12, align 4, !tbaa !8
  %47 = call ptr @Aig_ManCo(ptr noundef %45, i32 noundef %46)
  store ptr %47, ptr %13, align 8, !tbaa !10
  %48 = load ptr, ptr %13, align 8, !tbaa !10
  call void @Aig_ObjChild0Flip(ptr noundef %48)
  br label %49

49:                                               ; preds = %44
  %50 = load i32, ptr %12, align 4, !tbaa !8
  %51 = add nsw i32 %50, 1
  store i32 %51, ptr %12, align 4, !tbaa !8
  br label %39, !llvm.loop !50

52:                                               ; preds = %39
  %53 = load ptr, ptr %16, align 8, !tbaa !46
  call void @Pdr_ManSetDefaultParams(ptr noundef %53)
  %54 = load ptr, ptr %16, align 8, !tbaa !46
  %55 = getelementptr inbounds nuw %struct.Pdr_Par_t_, ptr %54, i32 0, i32 25
  store i32 1, ptr %55, align 4, !tbaa !51
  %56 = load ptr, ptr %16, align 8, !tbaa !46
  %57 = getelementptr inbounds nuw %struct.Pdr_Par_t_, ptr %56, i32 0, i32 27
  store i32 1, ptr %57, align 4, !tbaa !53
  %58 = load ptr, ptr %16, align 8, !tbaa !46
  %59 = getelementptr inbounds nuw %struct.Pdr_Par_t_, ptr %58, i32 0, i32 29
  store i32 1, ptr %59, align 4, !tbaa !54
  %60 = load ptr, ptr %6, align 8, !tbaa !3
  %61 = getelementptr inbounds nuw %struct.Aig_Man_t_, ptr %60, i32 0, i32 52
  store ptr null, ptr %61, align 8, !tbaa !55
  %62 = load ptr, ptr %6, align 8, !tbaa !3
  %63 = call i32 @Aig_ManCleanup(ptr noundef %62)
  %64 = load ptr, ptr %6, align 8, !tbaa !3
  %65 = load ptr, ptr %16, align 8, !tbaa !46
  %66 = call i32 @Pdr_ManSolve(ptr noundef %64, ptr noundef %65)
  %67 = load ptr, ptr %6, align 8, !tbaa !3
  %68 = getelementptr inbounds nuw %struct.Aig_Man_t_, ptr %67, i32 0, i32 52
  %69 = load ptr, ptr %68, align 8, !tbaa !55
  %70 = icmp ne ptr %69, null
  br i1 %70, label %71, label %82

71:                                               ; preds = %52
  %72 = load ptr, ptr %6, align 8, !tbaa !3
  %73 = getelementptr inbounds nuw %struct.Aig_Man_t_, ptr %72, i32 0, i32 52
  %74 = load ptr, ptr %73, align 8, !tbaa !55
  %75 = load i32, ptr %8, align 4, !tbaa !8
  %76 = call ptr @Vec_PtrEntry(ptr noundef %74, i32 noundef %75)
  store ptr %76, ptr %17, align 8, !tbaa !48
  %77 = load ptr, ptr %17, align 8, !tbaa !48
  %78 = icmp eq ptr %77, null
  br i1 %78, label %79, label %80

79:                                               ; preds = %71
  store i32 1, ptr %11, align 4, !tbaa !8
  br label %81

80:                                               ; preds = %71
  store i32 0, ptr %11, align 4, !tbaa !8
  br label %81

81:                                               ; preds = %80, %79
  br label %83

82:                                               ; preds = %52
  store i32 -1, ptr %11, align 4, !tbaa !8
  call void @exit(i32 noundef 0) #13
  unreachable

83:                                               ; preds = %81
  %84 = load ptr, ptr %18, align 8, !tbaa !49
  call void @free(ptr noundef %84) #10
  store i32 0, ptr %12, align 4, !tbaa !8
  br label %85

85:                                               ; preds = %95, %83
  %86 = load i32, ptr %12, align 4, !tbaa !8
  %87 = load ptr, ptr %6, align 8, !tbaa !3
  %88 = call i32 @Saig_ManPoNum(ptr noundef %87)
  %89 = icmp slt i32 %86, %88
  br i1 %89, label %90, label %98

90:                                               ; preds = %85
  %91 = load ptr, ptr %6, align 8, !tbaa !3
  %92 = load i32, ptr %12, align 4, !tbaa !8
  %93 = call ptr @Aig_ManCo(ptr noundef %91, i32 noundef %92)
  store ptr %93, ptr %13, align 8, !tbaa !10
  %94 = load ptr, ptr %13, align 8, !tbaa !10
  call void @Aig_ObjChild0Flip(ptr noundef %94)
  br label %95

95:                                               ; preds = %90
  %96 = load i32, ptr %12, align 4, !tbaa !8
  %97 = add nsw i32 %96, 1
  store i32 %97, ptr %12, align 4, !tbaa !8
  br label %85, !llvm.loop !56

98:                                               ; preds = %85
  %99 = load ptr, ptr %6, align 8, !tbaa !3
  call void @Aig_ManStop(ptr noundef %99)
  %100 = load i32, ptr %11, align 4, !tbaa !8
  call void @llvm.lifetime.end.p0(i64 8, ptr %18) #10
  call void @llvm.lifetime.end.p0(i64 8, ptr %17) #10
  call void @llvm.lifetime.end.p0(i64 8, ptr %16) #10
  call void @llvm.lifetime.end.p0(i64 192, ptr %15) #10
  call void @llvm.lifetime.end.p0(i64 8, ptr %14) #10
  call void @llvm.lifetime.end.p0(i64 8, ptr %13) #10
  call void @llvm.lifetime.end.p0(i64 4, ptr %12) #10
  call void @llvm.lifetime.end.p0(i64 4, ptr %11) #10
  ret i32 %100
}