; Function Attrs: nounwind uwtable
define range(i32 0, 2) i32 @flipConePdr(ptr noundef %0, i32 noundef %1, i32 noundef %2, i32 noundef %3, i32 noundef %4) local_unnamed_addr #2 {
  %6 = alloca %struct.Pdr_Par_t_, align 8
  call void @llvm.lifetime.start.p0(i64 192, ptr nonnull %6) #17
  %7 = tail call noalias dereferenceable_or_null(50) ptr @malloc(i64 noundef 50) #19
  %8 = tail call i32 (ptr, ptr, ...) @sprintf(ptr noundef nonnull dereferenceable(1) %7, ptr noundef nonnull dereferenceable(1) @.str.2, ptr noundef nonnull @.str.3, i32 noundef %4, ptr noundef nonnull @.str.4) #17
  switch i32 %1, label %21 [
    i32 4, label %9
    i32 3, label %9
    i32 1, label %9
  ]

9:                                                ; preds = %5, %5, %5
  %10 = getelementptr i8, ptr %0, i64 24
  %.val13.i = load ptr, ptr %10, align 8, !tbaa !3
  %11 = getelementptr i8, ptr %.val13.i, i64 8
  %.val13.val.i = load ptr, ptr %11, align 8, !tbaa !21
  %12 = sext i32 %3 to i64
  %13 = getelementptr inbounds ptr, ptr %.val13.val.i, i64 %12
  %14 = load ptr, ptr %13, align 8, !tbaa !23
  %15 = getelementptr i8, ptr %14, i64 8
  %.val1518.i = load ptr, ptr %15, align 8, !tbaa !24
  %16 = sext i32 %2 to i64
  %17 = getelementptr inbounds ptr, ptr %.val13.val.i, i64 %16
  %18 = load ptr, ptr %17, align 8, !tbaa !23
  %19 = getelementptr i8, ptr %18, i64 8
  %.val1419.i = load ptr, ptr %19, align 8, !tbaa !24
  %20 = tail call ptr @Aig_And(ptr noundef %0, ptr noundef %.val1518.i, ptr noundef %.val1419.i) #17
  tail call void @Aig_ObjPatchFanin0(ptr noundef %0, ptr noundef %18, ptr noundef %20) #17
  br label %21

21:                                               ; preds = %5, %9
  %22 = tail call ptr @Aig_ManDupSimple(ptr noundef %0) #17
  %23 = getelementptr i8, ptr %22, i64 112
  %.val44 = load i32, ptr %23, align 8, !tbaa !40
  %24 = icmp sgt i32 %.val44, 0
  br i1 %24, label %.lr.ph, label %._crit_edge

.lr.ph:                                           ; preds = %21
  %25 = getelementptr i8, ptr %22, i64 24
  %.val42 = load ptr, ptr %25, align 8, !tbaa !3
  %26 = getelementptr i8, ptr %.val42, i64 8
  %.val42.val = load ptr, ptr %26, align 8, !tbaa !21
  %wide.trip.count = zext nneg i32 %.val44 to i64
  br label %27

27:                                               ; preds = %.lr.ph, %27
  %indvars.iv = phi i64 [ 0, %.lr.ph ], [ %indvars.iv.next, %27 ]
  %28 = getelementptr inbounds nuw ptr, ptr %.val42.val, i64 %indvars.iv
  %29 = load ptr, ptr %28, align 8, !tbaa !23
  %30 = getelementptr inbounds nuw i8, ptr %29, i64 8
  %31 = load ptr, ptr %30, align 8, !tbaa !24
  %32 = ptrtoint ptr %31 to i64
  %33 = xor i64 %32, 1
  %34 = inttoptr i64 %33 to ptr
  store ptr %34, ptr %30, align 8, !tbaa !24
  %indvars.iv.next = add nuw nsw i64 %indvars.iv, 1
  %exitcond.not = icmp eq i64 %indvars.iv.next, %wide.trip.count
  br i1 %exitcond.not, label %._crit_edge, label %27, !llvm.loop !43

._crit_edge:                                      ; preds = %27, %21
  call void @Pdr_ManSetDefaultParams(ptr noundef nonnull %6) #17
  %35 = getelementptr inbounds nuw i8, ptr %6, i64 100
  store i32 1, ptr %35, align 4, !tbaa !44
  %36 = getelementptr inbounds nuw i8, ptr %6, i64 108
  store i32 1, ptr %36, align 4, !tbaa !46
  %37 = getelementptr inbounds nuw i8, ptr %6, i64 116
  store i32 1, ptr %37, align 4, !tbaa !47
  %38 = getelementptr inbounds nuw i8, ptr %22, i64 416
  store ptr null, ptr %38, align 8, !tbaa !48
  %39 = call i32 @Aig_ManCleanup(ptr noundef nonnull %22) #17
  %40 = call i32 @Pdr_ManSolve(ptr noundef nonnull %22, ptr noundef nonnull %6) #17
  %41 = load ptr, ptr %38, align 8, !tbaa !48
  %.not = icmp eq ptr %41, null
  br i1 %.not, label %50, label %42

42:                                               ; preds = %._crit_edge
  %43 = getelementptr i8, ptr %41, i64 8
  %.val = load ptr, ptr %43, align 8, !tbaa !21
  %44 = sext i32 %2 to i64
  %45 = getelementptr inbounds ptr, ptr %.val, i64 %44
  %46 = load ptr, ptr %45, align 8, !tbaa !23
  call void @free(ptr noundef %7) #17
  %.val43 = load i32, ptr %23, align 8, !tbaa !40
  %47 = icmp sgt i32 %.val43, 0
  br i1 %47, label %.lr.ph48, label %._crit_edge49

.lr.ph48:                                         ; preds = %42
  %48 = getelementptr i8, ptr %22, i64 24
  %.val41 = load ptr, ptr %48, align 8, !tbaa !3
  %49 = getelementptr i8, ptr %.val41, i64 8
  %.val41.val = load ptr, ptr %49, align 8, !tbaa !21
  %wide.trip.count54 = zext nneg i32 %.val43 to i64
  br label %51

50:                                               ; preds = %._crit_edge
  call void @exit(i32 noundef 0) #20
  unreachable

51:                                               ; preds = %.lr.ph48, %51
  %indvars.iv51 = phi i64 [ 0, %.lr.ph48 ], [ %indvars.iv.next52, %51 ]
  %52 = getelementptr inbounds nuw ptr, ptr %.val41.val, i64 %indvars.iv51
  %53 = load ptr, ptr %52, align 8, !tbaa !23
  %54 = getelementptr inbounds nuw i8, ptr %53, i64 8
  %55 = load ptr, ptr %54, align 8, !tbaa !24
  %56 = ptrtoint ptr %55 to i64
  %57 = xor i64 %56, 1
  %58 = inttoptr i64 %57 to ptr
  store ptr %58, ptr %54, align 8, !tbaa !24
  %indvars.iv.next52 = add nuw nsw i64 %indvars.iv51, 1
  %exitcond55.not = icmp eq i64 %indvars.iv.next52, %wide.trip.count54
  br i1 %exitcond55.not, label %._crit_edge49, label %51, !llvm.loop !49

._crit_edge49:                                    ; preds = %51, %42
  %59 = icmp eq ptr %46, null
  %. = zext i1 %59 to i32
  call void @Aig_ManStop(ptr noundef nonnull %22) #17
  call void @llvm.lifetime.end.p0(i64 192, ptr nonnull %6) #17
  ret i32 %.
}